; Function Attrs: nounwind uwtable
define hidden void @zim_SQLite3_enableExtendedResultCodes(ptr noundef readonly captures(none) %0, ptr noundef writeonly captures(none) %1) #0 {
  %3 = alloca i8, align 1
  %4 = getelementptr inbounds nuw i8, ptr %0, i64 32
  call void @llvm.lifetime.start.p0(i64 1, ptr nonnull %3) #17
  store i8 1, ptr %3, align 1, !tbaa !80
  %5 = load ptr, ptr %4, align 8, !tbaa !8
  %6 = getelementptr inbounds i8, ptr %5, i64 -128
  %7 = getelementptr inbounds nuw i8, ptr %0, i64 44
  %8 = load i32, ptr %7, align 4, !tbaa !8
  %9 = call i32 (i32, ptr, ...) @zend_parse_parameters(i32 noundef %8, ptr noundef nonnull @.str.12, ptr noundef nonnull %3) #17
  %10 = icmp eq i32 %9, -1
  br i1 %10, label %11, label %14

11:                                               ; preds = %2
  %12 = load ptr, ptr getelementptr inbounds nuw (i8, ptr @executor_globals, i64 960), align 8, !tbaa !9
  %13 = icmp ne ptr %12, null
  call void @llvm.assume(i1 %13)
  br label %32

14:                                               ; preds = %2
  %15 = getelementptr inbounds i8, ptr %5, i64 -120
  %16 = load ptr, ptr %15, align 8, !tbaa !59
  %.not10 = icmp eq ptr %16, null
  br i1 %.not10, label %17, label %20

17:                                               ; preds = %14
  call void (ptr, ptr, ...) @zend_throw_error(ptr noundef null, ptr noundef nonnull @.str.8) #17
  %18 = load ptr, ptr getelementptr inbounds nuw (i8, ptr @executor_globals, i64 960), align 8, !tbaa !9
  %19 = icmp ne ptr %18, null
  call void @llvm.assume(i1 %19)
  br label %32

20:                                               ; preds = %14
  %21 = load i8, ptr %6, align 8, !tbaa !44, !range !55, !noundef !56
  %22 = trunc nuw i8 %21 to i1
  br i1 %22, label %23, label %30

23:                                               ; preds = %20
  %24 = load i8, ptr %3, align 1, !tbaa !80, !range !55, !noundef !56
  %25 = zext nneg i8 %24 to i32
  %26 = call i32 @sqlite3_extended_result_codes(ptr noundef nonnull %16, i32 noundef %25) #17
  %27 = icmp eq i32 %26, 0
  br i1 %27, label %28, label %30

28:                                               ; preds = %23
  %29 = getelementptr inbounds nuw i8, ptr %1, i64 8
  store i32 3, ptr %29, align 8, !tbaa !8
  br label %32

30:                                               ; preds = %23, %20
  %31 = getelementptr inbounds nuw i8, ptr %1, i64 8
  store i32 2, ptr %31, align 8, !tbaa !8
  br label %32

32:                                               ; preds = %30, %28, %17, %11
  call void @llvm.lifetime.end.p0(i64 1, ptr nonnull %3) #17
  ret void
}